target datalayout = "e-m:e-p270:32:32-p271:32:32-p272:64:64-i64:64-i128:128-f80:128-n8:16:32:64-S128"
target triple = "x86_64-pc-linux-gnu"

%struct.jvmtiInterface_1_ = type { ptr, ptr, ptr, ptr, ptr, ptr, ptr, ptr, ptr, ptr, ptr, ptr, ptr, ptr, ptr, ptr, ptr, ptr, ptr, ptr, ptr, ptr, ptr, ptr, ptr, ptr, ptr, ptr, ptr, ptr, ptr, ptr, ptr, ptr, ptr, ptr, ptr, ptr, ptr, ptr, ptr, ptr, ptr, ptr, ptr, ptr, ptr, ptr, ptr, ptr, ptr, ptr, ptr, ptr, ptr, ptr, ptr, ptr, ptr, ptr, ptr, ptr, ptr, ptr, ptr, ptr, ptr, ptr, ptr, ptr, ptr, ptr, ptr, ptr, ptr, ptr, ptr, ptr, ptr, ptr, ptr, ptr, ptr, ptr, ptr, ptr, ptr, ptr, ptr, ptr, ptr, ptr, ptr, ptr, ptr, ptr, ptr, ptr, ptr, ptr, ptr, ptr, ptr, ptr, ptr, ptr, ptr, ptr, ptr, ptr, ptr, ptr, ptr, ptr, ptr, ptr, ptr, ptr, ptr, ptr, ptr, ptr, ptr, ptr, ptr, ptr, ptr, ptr, ptr, ptr, ptr, ptr, ptr, ptr, ptr, ptr, ptr, ptr, ptr, ptr, ptr, ptr, ptr, ptr, ptr, ptr, ptr, ptr, ptr, ptr, ptr, ptr, ptr, ptr, ptr, ptr }
%struct._JPLISEnvironment = type { ptr, ptr, i8 }

@.str = private unnamed_addr constant [31 x i8] c"jvmtierror == JVMTI_ERROR_NONE\00", align 1
@.str.1 = private unnamed_addr constant [60 x i8] c"src/java.instrument/share/native/libinstrument/JPLISAgent.c\00", align 1
@.str.2 = private unnamed_addr constant [20 x i8] c"environment != NULL\00", align 1
@.str.3 = private unnamed_addr constant [35 x i8] c"environment->mJVMTIEnv == jvmtienv\00", align 1

; Function Attrs: nounwind uwtable
define hidden ptr @getJPLISEnvironment(ptr noundef %0) #0 {
  %2 = alloca ptr, align 8
  %3 = alloca ptr, align 8
  %4 = alloca i32, align 4
  store ptr %0, ptr %2, align 8
  store ptr null, ptr %3, align 8
  store i32 0, ptr %4, align 4
  %5 = load ptr, ptr %2, align 8
  %6 = load ptr, ptr %5, align 8
  %7 = getelementptr inbounds %struct.jvmtiInterface_1_, ptr %6, i32 0, i32 146
  %8 = load ptr, ptr %7, align 8
  %9 = load ptr, ptr %2, align 8
  %10 = call i32 %8(ptr noundef %9, ptr noundef %3)
  store i32 %10, ptr %4, align 4
  %11 = load i32, ptr %4, align 4
  %12 = icmp eq i32 %11, 0
  %13 = zext i1 %12 to i32
  %14 = trunc i32 %13 to i8
  call void @JPLISAssertCondition(i8 noundef zeroext %14, ptr noundef @.str, ptr noundef @.str.1, i32 noundef 185)
  %15 = load i32, ptr %4, align 4
  %16 = icmp eq i32 %15, 0
  br i1 %16, label %17, label %29

17:                                               ; preds = %1
  %18 = load ptr, ptr %3, align 8
  %19 = icmp ne ptr %18, null
  %20 = zext i1 %19 to i32
  %21 = trunc i32 %20 to i8
  call void @JPLISAssertCondition(i8 noundef zeroext %21, ptr noundef @.str.2, ptr noundef @.str.1, i32 noundef 188)
  %22 = load ptr, ptr %3, align 8
  %23 = getelementptr inbounds %struct._JPLISEnvironment, ptr %22, i32 0, i32 0
  %24 = load ptr, ptr %23, align 8
  %25 = load ptr, ptr %2, align 8
  %26 = icmp eq ptr %24, %25
  %27 = zext i1 %26 to i32
  %28 = trunc i32 %27 to i8
  call void @JPLISAssertCondition(i8 noundef zeroext %28, ptr noundef @.str.3, ptr noundef @.str.1, i32 noundef 189)
  br label %30

29:                                               ; preds = %1
  store ptr null, ptr %3, align 8
  br label %30

30:                                               ; preds = %29, %17
  %31 = load ptr, ptr %3, align 8
  ret ptr %31
}