; Function Attrs: nounwind uwtable
define hidden ptr @getJPLISEnvironment(ptr noundef %0) local_unnamed_addr #0 {
  %2 = alloca ptr, align 8
  store ptr null, ptr %2, align 8
  %3 = load ptr, ptr %0, align 8
  %4 = getelementptr inbounds i8, ptr %3, i64 1168
  %5 = load ptr, ptr %4, align 8
  %6 = call i32 %5(ptr noundef nonnull %0, ptr noundef nonnull %2) #10
  %7 = icmp eq i32 %6, 0
  %8 = zext i1 %7 to i8
  call void @JPLISAssertCondition(i8 noundef zeroext %8, ptr noundef nonnull @.str, ptr noundef nonnull @.str.1, i32 noundef 185) #10
  br i1 %7, label %9, label %17

9:                                                ; preds = %1
  %10 = load ptr, ptr %2, align 8
  %11 = icmp ne ptr %10, null
  %12 = zext i1 %11 to i8
  call void @JPLISAssertCondition(i8 noundef zeroext %12, ptr noundef nonnull @.str.2, ptr noundef nonnull @.str.1, i32 noundef 188) #10
  %13 = load ptr, ptr %2, align 8
  %14 = load ptr, ptr %13, align 8
  %15 = icmp eq ptr %14, %0
  %16 = zext i1 %15 to i8
  call void @JPLISAssertCondition(i8 noundef zeroext %16, ptr noundef nonnull @.str.3, ptr noundef nonnull @.str.1, i32 noundef 189) #10
  %.pre = load ptr, ptr %2, align 8
  br label %17

17:                                               ; preds = %1, %9
  %18 = phi ptr [ %.pre, %9 ], [ null, %1 ]
  ret ptr %18
}